target datalayout = "e-m:e-p270:32:32-p271:32:32-p272:64:64-i64:64-i128:128-f80:128-n8:16:32:64-S128"
target triple = "x86_64-pc-linux-gnu"

%struct.AVFormatContext = type { ptr, ptr, ptr, ptr, ptr, i32, i32, ptr, i32, ptr, i32, ptr, ptr, i64, i64, i64, i32, i32, i32, i64, i64, ptr, i32, i32, ptr, i32, i32, i32, i32, ptr, i64, i32, i32, %struct.AVIOInterruptCB, i32, i32, i32, i32, i64, i32, i32, i32, i32, i32, i32, i32, i32, i32, i32, i32, i32, i64, i32, i32, i32, i32, i32, ptr, ptr, ptr, ptr, i32, ptr, ptr, ptr, ptr, i32, ptr, ptr, i64, ptr, ptr, ptr, i64 }
%struct.AVIOInterruptCB = type { ptr, ptr }
%struct.ConcatContext = type { ptr, ptr, ptr, i32, ptr, i32, i32, i32, i32, i32, i32 }
%struct.ConcatFile = type { ptr, i64, i64, i64, i64, i64, i64, ptr, i64, i64, ptr, ptr, i32 }
%struct.ConcatStream = type { ptr, i32 }

; Function Attrs: nounwind uwtable
define internal i32 @concat_read_close(ptr noundef %0) #0 {
  %2 = alloca ptr, align 8
  %3 = alloca ptr, align 8
  %4 = alloca i32, align 4
  %5 = alloca i32, align 4
  store ptr %0, ptr %2, align 8, !tbaa !13
  call void @llvm.lifetime.start.p0(i64 8, ptr %3) #14
  %6 = load ptr, ptr %2, align 8, !tbaa !13
  %7 = getelementptr inbounds nuw %struct.AVFormatContext, ptr %6, i32 0, i32 3
  %8 = load ptr, ptr %7, align 8, !tbaa !15
  store ptr %8, ptr %3, align 8, !tbaa !30
  call void @llvm.lifetime.start.p0(i64 4, ptr %4) #14
  call void @llvm.lifetime.start.p0(i64 4, ptr %5) #14
  store i32 0, ptr %4, align 4, !tbaa !32
  br label %9

9:                                                ; preds = %88, %1
  %10 = load i32, ptr %4, align 4, !tbaa !32
  %11 = load ptr, ptr %3, align 8, !tbaa !30
  %12 = getelementptr inbounds nuw %struct.ConcatContext, ptr %11, i32 0, i32 3
  %13 = load i32, ptr %12, align 8, !tbaa !33
  %14 = icmp ult i32 %10, %13
  br i1 %14, label %15, label %91

15:                                               ; preds = %9
  %16 = load ptr, ptr %3, align 8, !tbaa !30
  %17 = getelementptr inbounds nuw %struct.ConcatContext, ptr %16, i32 0, i32 1
  %18 = load ptr, ptr %17, align 8, !tbaa !35
  %19 = load i32, ptr %4, align 4, !tbaa !32
  %20 = zext i32 %19 to i64
  %21 = getelementptr inbounds nuw %struct.ConcatFile, ptr %18, i64 %20
  %22 = getelementptr inbounds nuw %struct.ConcatFile, ptr %21, i32 0, i32 0
  call void @av_freep(ptr noundef %22)
  store i32 0, ptr %5, align 4, !tbaa !32
  br label %23

23:                                               ; preds = %63, %15
  %24 = load i32, ptr %5, align 4, !tbaa !32
  %25 = load ptr, ptr %3, align 8, !tbaa !30
  %26 = getelementptr inbounds nuw %struct.ConcatContext, ptr %25, i32 0, i32 1
  %27 = load ptr, ptr %26, align 8, !tbaa !35
  %28 = load i32, ptr %4, align 4, !tbaa !32
  %29 = zext i32 %28 to i64
  %30 = getelementptr inbounds nuw %struct.ConcatFile, ptr %27, i64 %29
  %31 = getelementptr inbounds nuw %struct.ConcatFile, ptr %30, i32 0, i32 12
  %32 = load i32, ptr %31, align 8, !tbaa !89
  %33 = icmp ult i32 %24, %32
  br i1 %33, label %34, label %66

34:                                               ; preds = %23
  %35 = load ptr, ptr %3, align 8, !tbaa !30
  %36 = getelementptr inbounds nuw %struct.ConcatContext, ptr %35, i32 0, i32 1
  %37 = load ptr, ptr %36, align 8, !tbaa !35
  %38 = load i32, ptr %4, align 4, !tbaa !32
  %39 = zext i32 %38 to i64
  %40 = getelementptr inbounds nuw %struct.ConcatFile, ptr %37, i64 %39
  %41 = getelementptr inbounds nuw %struct.ConcatFile, ptr %40, i32 0, i32 7
  %42 = load ptr, ptr %41, align 8, !tbaa !54
  %43 = load i32, ptr %5, align 4, !tbaa !32
  %44 = zext i32 %43 to i64
  %45 = getelementptr inbounds nuw %struct.ConcatStream, ptr %42, i64 %44
  %46 = getelementptr inbounds nuw %struct.ConcatStream, ptr %45, i32 0, i32 0
  %47 = load ptr, ptr %46, align 8, !tbaa !90
  %48 = icmp ne ptr %47, null
  br i1 %48, label %49, label %62

49:                                               ; preds = %34
  %50 = load ptr, ptr %3, align 8, !tbaa !30
  %51 = getelementptr inbounds nuw %struct.ConcatContext, ptr %50, i32 0, i32 1
  %52 = load ptr, ptr %51, align 8, !tbaa !35
  %53 = load i32, ptr %4, align 4, !tbaa !32
  %54 = zext i32 %53 to i64
  %55 = getelementptr inbounds nuw %struct.ConcatFile, ptr %52, i64 %54
  %56 = getelementptr inbounds nuw %struct.ConcatFile, ptr %55, i32 0, i32 7
  %57 = load ptr, ptr %56, align 8, !tbaa !54
  %58 = load i32, ptr %5, align 4, !tbaa !32
  %59 = zext i32 %58 to i64
  %60 = getelementptr inbounds nuw %struct.ConcatStream, ptr %57, i64 %59
  %61 = getelementptr inbounds nuw %struct.ConcatStream, ptr %60, i32 0, i32 0
  call void @av_bsf_free(ptr noundef %61)
  br label %62

62:                                               ; preds = %49, %34
  br label %63

63:                                               ; preds = %62
  %64 = load i32, ptr %5, align 4, !tbaa !32
  %65 = add i32 %64, 1
  store i32 %65, ptr %5, align 4, !tbaa !32
  br label %23, !llvm.loop !91

66:                                               ; preds = %23
  %67 = load ptr, ptr %3, align 8, !tbaa !30
  %68 = getelementptr inbounds nuw %struct.ConcatContext, ptr %67, i32 0, i32 1
  %69 = load ptr, ptr %68, align 8, !tbaa !35
  %70 = load i32, ptr %4, align 4, !tbaa !32
  %71 = zext i32 %70 to i64
  %72 = getelementptr inbounds nuw %struct.ConcatFile, ptr %69, i64 %71
  %73 = getelementptr inbounds nuw %struct.ConcatFile, ptr %72, i32 0, i32 7
  call void @av_freep(ptr noundef %73)
  %74 = load ptr, ptr %3, align 8, !tbaa !30
  %75 = getelementptr inbounds nuw %struct.ConcatContext, ptr %74, i32 0, i32 1
  %76 = load ptr, ptr %75, align 8, !tbaa !35
  %77 = load i32, ptr %4, align 4, !tbaa !32
  %78 = zext i32 %77 to i64
  %79 = getelementptr inbounds nuw %struct.ConcatFile, ptr %76, i64 %78
  %80 = getelementptr inbounds nuw %struct.ConcatFile, ptr %79, i32 0, i32 10
  call void @av_dict_free(ptr noundef %80)
  %81 = load ptr, ptr %3, align 8, !tbaa !30
  %82 = getelementptr inbounds nuw %struct.ConcatContext, ptr %81, i32 0, i32 1
  %83 = load ptr, ptr %82, align 8, !tbaa !35
  %84 = load i32, ptr %4, align 4, !tbaa !32
  %85 = zext i32 %84 to i64
  %86 = getelementptr inbounds nuw %struct.ConcatFile, ptr %83, i64 %85
  %87 = getelementptr inbounds nuw %struct.ConcatFile, ptr %86, i32 0, i32 11
  call void @av_dict_free(ptr noundef %87)
  br label %88

88:                                               ; preds = %66
  %89 = load i32, ptr %4, align 4, !tbaa !32
  %90 = add i32 %89, 1
  store i32 %90, ptr %4, align 4, !tbaa !32
  br label %9, !llvm.loop !92

91:                                               ; preds = %9
  %92 = load ptr, ptr %3, align 8, !tbaa !30
  %93 = getelementptr inbounds nuw %struct.ConcatContext, ptr %92, i32 0, i32 4
  %94 = load ptr, ptr %93, align 8, !tbaa !52
  %95 = icmp ne ptr %94, null
  br i1 %95, label %96, label %99

96:                                               ; preds = %91
  %97 = load ptr, ptr %3, align 8, !tbaa !30
  %98 = getelementptr inbounds nuw %struct.ConcatContext, ptr %97, i32 0, i32 4
  call void @avformat_close_input(ptr noundef %98)
  br label %99

99:                                               ; preds = %96, %91
  %100 = load ptr, ptr %3, align 8, !tbaa !30
  %101 = getelementptr inbounds nuw %struct.ConcatContext, ptr %100, i32 0, i32 1
  call void @av_freep(ptr noundef %101)
  call void @llvm.lifetime.end.p0(i64 4, ptr %5) #14
  call void @llvm.lifetime.end.p0(i64 4, ptr %4) #14
  call void @llvm.lifetime.end.p0(i64 8, ptr %3) #14
  ret i32 0
}