; Function Attrs: nounwind uwtable
define internal noundef i32 @concat_read_close(ptr noundef readonly captures(none) %0) #1 {
  %2 = getelementptr inbounds nuw i8, ptr %0, i64 24
  %3 = load ptr, ptr %2, align 8, !tbaa !11
  %4 = getelementptr inbounds nuw i8, ptr %3, i64 24
  %5 = load i32, ptr %4, align 8, !tbaa !40
  %.not31 = icmp eq i32 %5, 0
  br i1 %.not31, label %._crit_edge30, label %.lr.ph29

.lr.ph29:                                         ; preds = %1
  %6 = getelementptr inbounds nuw i8, ptr %3, i64 8
  br label %7

7:                                                ; preds = %.lr.ph29, %._crit_edge
  %indvars.iv34 = phi i64 [ 0, %.lr.ph29 ], [ %indvars.iv.next35, %._crit_edge ]
  %8 = load ptr, ptr %6, align 8, !tbaa !46
  %9 = getelementptr inbounds nuw %struct.ConcatFile, ptr %8, i64 %indvars.iv34
  tail call void @av_freep(ptr noundef %9) #14
  %10 = load ptr, ptr %6, align 8, !tbaa !46
  %11 = getelementptr inbounds nuw %struct.ConcatFile, ptr %10, i64 %indvars.iv34, i32 12
  %12 = load i32, ptr %11, align 8, !tbaa !107
  %.not32 = icmp eq i32 %12, 0
  br i1 %.not32, label %._crit_edge, label %.lr.ph

.lr.ph:                                           ; preds = %7, %19
  %13 = phi ptr [ %20, %19 ], [ %10, %7 ]
  %indvars.iv = phi i64 [ %indvars.iv.next, %19 ], [ 0, %7 ]
  %14 = getelementptr inbounds nuw %struct.ConcatFile, ptr %13, i64 %indvars.iv34, i32 7
  %15 = load ptr, ptr %14, align 8, !tbaa !89
  %16 = getelementptr inbounds nuw %struct.ConcatStream, ptr %15, i64 %indvars.iv
  %17 = load ptr, ptr %16, align 8, !tbaa !93
  %.not25 = icmp eq ptr %17, null
  br i1 %.not25, label %19, label %18

18:                                               ; preds = %.lr.ph
  tail call void @av_bsf_free(ptr noundef nonnull %16) #14
  %.pre = load ptr, ptr %6, align 8, !tbaa !46
  br label %19

19:                                               ; preds = %.lr.ph, %18
  %20 = phi ptr [ %13, %.lr.ph ], [ %.pre, %18 ]
  %indvars.iv.next = add nuw nsw i64 %indvars.iv, 1
  %21 = getelementptr inbounds nuw %struct.ConcatFile, ptr %20, i64 %indvars.iv34, i32 12
  %22 = load i32, ptr %21, align 8, !tbaa !107
  %23 = zext i32 %22 to i64
  %24 = icmp samesign ult i64 %indvars.iv.next, %23
  br i1 %24, label %.lr.ph, label %._crit_edge, !llvm.loop !108

._crit_edge:                                      ; preds = %19, %7
  %25 = phi ptr [ %10, %7 ], [ %20, %19 ]
  %26 = getelementptr inbounds nuw %struct.ConcatFile, ptr %25, i64 %indvars.iv34, i32 7
  tail call void @av_freep(ptr noundef nonnull %26) #14
  %27 = load ptr, ptr %6, align 8, !tbaa !46
  %28 = getelementptr inbounds nuw %struct.ConcatFile, ptr %27, i64 %indvars.iv34, i32 10
  tail call void @av_dict_free(ptr noundef nonnull %28) #14
  %29 = load ptr, ptr %6, align 8, !tbaa !46
  %30 = getelementptr inbounds nuw %struct.ConcatFile, ptr %29, i64 %indvars.iv34, i32 11
  tail call void @av_dict_free(ptr noundef nonnull %30) #14
  %indvars.iv.next35 = add nuw nsw i64 %indvars.iv34, 1
  %31 = load i32, ptr %4, align 8, !tbaa !40
  %32 = zext i32 %31 to i64
  %33 = icmp samesign ult i64 %indvars.iv.next35, %32
  br i1 %33, label %7, label %._crit_edge30, !llvm.loop !109

._crit_edge30:                                    ; preds = %._crit_edge, %1
  %34 = getelementptr inbounds nuw i8, ptr %3, i64 32
  %35 = load ptr, ptr %34, align 8, !tbaa !80
  %.not = icmp eq ptr %35, null
  br i1 %.not, label %37, label %36

36:                                               ; preds = %._crit_edge30
  tail call void @avformat_close_input(ptr noundef nonnull %34) #14
  br label %37

37:                                               ; preds = %36, %._crit_edge30
  %38 = getelementptr inbounds nuw i8, ptr %3, i64 8
  tail call void @av_freep(ptr noundef nonnull %38) #14
  ret i32 0
}